Certificate:
    Data:
        Version: 3 (0x2)
        Serial Number: 2 (0x2)
        Signature Algorithm: sha1WithRSAEncryption
        Issuer: C=DE, ST=Berlin, L=Berlin, O=Optiopay, CN=optiopay.com
        Validity
            Not Before: Oct 22 10:44:14 2020 GMT
            Not After : Oct 20 10:44:14 2030 GMT
        Subject: C=DE, ST=Berlin, O=Optiopay, CN=optiopay.com
        Subject Public Key Info:
            Public Key Algorithm: rsaEncryption
                RSA Public-Key: (2048 bit)
                Modulus:
                    00:a5:fb:8a:b3:19:c2:0d:6f:03:ad:f0:94:20:55:
                    65:28:95:63:3c:97:d5:7e:54:5e:25:f7:1c:66:15:
                    c3:ad:ad:f9:5f:44:49:b2:e7:e7:7e:c3:29:51:ac:
                    fe:0c:d0:8a:21:a1:e0:70:c9:cf:bd:0e:b6:59:b9:
                    94:ae:90:36:c4:25:f2:ef:f1:e2:84:15:87:26:b4:
                    c5:b0:53:8a:72:3a:31:b1:4e:14:4c:e6:47:97:cd:
                    09:c6:98:08:4a:83:3f:76:a9:a4:72:04:82:83:a0:
                    9f:c5:31:fb:dd:0a:b5:d0:22:ac:0f:fa:f1:22:d4:
                    f3:87:42:3a:80:0f:61:8c:0c:8a:2f:c2:2d:51:be:
                    6e:6c:bf:52:b6:7c:93:76:35:18:4f:ee:f6:e6:5f:
                    b3:cf:33:fc:a3:28:03:ab:af:3c:87:3a:d1:90:34:
                    8d:ec:70:1d:be:c0:37:63:b5:03:41:05:e8:ad:49:
                    05:da:e0:21:15:7c:58:44:dc:15:be:37:0e:a0:29:
                    9e:cd:fe:5b:d2:eb:de:cf:fd:69:46:85:5e:0b:24:
                    df:39:26:41:73:f8:e8:a5:a2:c6:9c:ea:a8:6f:e6:
                    b5:c6:c3:5b:e2:61:17:f2:e9:5b:9f:d7:b8:82:a8:
                    77:2b:cb:d8:02:d9:b1:ab:b9:f8:70:dc:31:0a:da:
                    0e:b3
                Exponent: 65537 (0x10001)
        X509v3 extensions:
            X509v3 Basic Constraints: 
                CA:FALSE
            X509v3 Subject Alternative Name: 
                DNS:localhost, DNS:0.0.0.0, IP Address:127.0.0.1, IP Address:127.0.1.1
            X509v3 Subject Key Identifier: 
                FA:39:0D:5F:62:B3:20:4A:9B:4D:EA:4E:3C:C5:97:7D:BD:D5:B1:42
    Signature Algorithm: sha1WithRSAEncryption
         5d:b3:36:fc:b8:9e:98:94:de:fa:95:84:16:4c:f3:d3:0a:ae:
         e9:98:a7:9b:50:69:ba:72:2d:a1:1b:08:08:ce:15:70:a6:15:
         1e:bd:83:4a:d1:17:2d:a4:6a:f1:fa:71:fb:71:b8:45:8c:15:
         d8:70:ea:0e:ae:8a:e3:eb:2f:aa:2b:c6:c6:b6:e5:b5:df:40:
         0b:e7:7b:1a:53:be:31:97:5d:30:e3:16:ff:53:b3:c7:95:e3:
         a9:1d:ad:c6:b5:05:52:a8:30:20:d4:c5:4a:e2:f0:d8:5c:3b:
         14:c3:cd:77:39:02:f6:00:a7:35:f2:bb:78:83:93:49:86:58:
         0e:16:28:09:7d:6c:7a:55:d8:be:06:45:8c:2b:5c:a2:3b:b3:
         29:f4:8e:bf:86:b8:ec:ba:6d:39:55:38:0c:b5:97:82:4d:00:
         0d:ea:21:ed:8d:02:04:f8:cc:c8:0b:37:06:70:ef:72:87:e5:
         6f:95:ef:6c:39:21:34:84:8d:ba:ce:7d:98:df:ec:82:ed:1c:
         6f:48:02:42:70:20:89:a6:3f:71:ad:7d:49:3e:9c:42:dc:f1:
         1f:ed:9d:9d:8f:da:ae:65:a4:82:20:a8:cc:3d:74:cd:a4:2f:
         e8:cc:2e:9e:0a:84:40:55:8b:14:1a:09:1e:20:9d:43:3e:a0:
         04:da:73:8e
-----BEGIN CERTIFICATE-----
MIIDczCCAlugAwIBAgIBAjANBgkqhkiG9w0BAQUFADBZMQswCQYDVQQGEwJERTEP
MA0GA1UECAwGQmVybGluMQ8wDQYDVQQHDAZCZXJsaW4xETAPBgNVBAoMCE9wdGlv
cGF5MRUwEwYDVQQDDAxvcHRpb3BheS5jb20wHhcNMjAxMDIyMTA0NDE0WhcNMzAx
MDIwMTA0NDE0WjBIMQswCQYDVQQGEwJERTEPMA0GA1UECAwGQmVybGluMREwDwYD
VQQKDAhPcHRpb3BheTEVMBMGA1UEAwwMb3B0aW9wYXkuY29tMIIBIjANBgkqhkiG
9w0BAQEFAAOCAQ8AMIIBCgKCAQEApfuKsxnCDW8DrfCUIFVlKJVjPJfVflReJfcc
ZhXDra35X0RJsufnfsMpUaz+DNCKIaHgcMnPvQ62WbmUrpA2xCXy7/HihBWHJrTF
sFOKcjoxsU4UTOZHl80JxpgISoM/dqmkcgSCg6CfxTH73Qq10CKsD/rxItTzh0I6
gA9hjAyKL8ItUb5ubL9StnyTdjUYT+725l+zzzP8oygDq688hzrRkDSN7HAdvsA3
Y7UDQQXorUkF2uAhFXxYRNwVvjcOoCmezf5b0uvez/1pRoVeCyTfOSZBc/jopaLG
nOqob+a1xsNb4mEX8ulbn9e4gqh3K8vYAtmxq7n4cNwxCtoOswIDAQABo1cwVTAJ
BgNVHRMEAjAAMCkGA1UdEQQiMCCCCWxvY2FsaG9zdIIHMC4wLjAuMIcEfwAAAYcE
fwABATAdBgNVHQ4EFgQU+jkNX2KzIEqbTepOPMWXfb3VsUIwDQYJKoZIhvcNAQEF
BQADggEBAF2zNvy4npiU3vqVhBZM89MKrumYp5tQabpyLaEbCAjOFXCmFR69g0rR
Fy2kavH6cftxuEWMFdhw6g6uiuPrL6orxsa25bXfQAvnexpTvjGXXTDjFv9Ts8eV
46kdrca1BVKoMCDUxUri8NhcOxTDzXc5AvYApzXyu3iDk0mGWA4WKAl9bHpV2L4G
RYwrXKI7syn0jr+GuOy6bTlVOAy1l4JNAA3qIe2NAgT4zMgLNwZw73KH5W+V72w5
ITSEjbrOfZjf7ILtHG9IAkJwIImmP3GtfUk+nELc8R/tnZ2P2q5lpIIgqMw9dM2k
L+jMLp4KhEBVixQaCR4gnUM+oATac44=
-----END CERTIFICATE-----
